target datalayout = "e-m:e-p270:32:32-p271:32:32-p272:64:64-i64:64-i128:128-f80:128-n8:16:32:64-S128"
target triple = "x86_64-pc-linux-gnu"

%"class.std::__cxx11::basic_string" = type { %"struct.std::__cxx11::basic_string<char>::_Alloc_hider", i64, %union.anon }
%"struct.std::__cxx11::basic_string<char>::_Alloc_hider" = type { ptr }
%union.anon = type { i64, [8 x i8] }
%"class.OpenColorIO_v2_5dev::CDLParser::Impl" = type <{ ptr, %"class.OpenColorIO_v2_5dev::XmlReaderElementStack", %"class.std::shared_ptr", i32, [4 x i8], %"class.std::__cxx11::basic_string", i8, i8, [6 x i8] }>
%"class.OpenColorIO_v2_5dev::XmlReaderElementStack" = type { ptr, %"class.std::vector" }
%"class.std::vector" = type { %"struct.std::_Vector_base" }
%"struct.std::_Vector_base" = type { %"struct.std::_Vector_base<std::shared_ptr<OpenColorIO_v2_5dev::XmlReaderElement>, std::allocator<std::shared_ptr<OpenColorIO_v2_5dev::XmlReaderElement>>>::_Vector_impl" }
%"struct.std::_Vector_base<std::shared_ptr<OpenColorIO_v2_5dev::XmlReaderElement>, std::allocator<std::shared_ptr<OpenColorIO_v2_5dev::XmlReaderElement>>>::_Vector_impl" = type { %"struct.std::_Vector_base<std::shared_ptr<OpenColorIO_v2_5dev::XmlReaderElement>, std::allocator<std::shared_ptr<OpenColorIO_v2_5dev::XmlReaderElement>>>::_Vector_impl_data" }
%"struct.std::_Vector_base<std::shared_ptr<OpenColorIO_v2_5dev::XmlReaderElement>, std::allocator<std::shared_ptr<OpenColorIO_v2_5dev::XmlReaderElement>>>::_Vector_impl_data" = type { ptr, ptr, ptr }
%"class.std::shared_ptr" = type { %"class.std::__shared_ptr" }
%"class.std::__shared_ptr" = type { ptr, %"class.std::__shared_count" }
%"class.std::__shared_count" = type { ptr }
%"class.std::allocator.0" = type { i8 }

@__dso_handle = external hidden global i8
@_ZZNK19OpenColorIO_v2_5dev9CDLParser4Impl14getXmlFilenameB5cxx11EvE9emptyNameB5cxx11 = internal global %"class.std::__cxx11::basic_string" zeroinitializer, align 8
@_ZGVZNK19OpenColorIO_v2_5dev9CDLParser4Impl14getXmlFilenameB5cxx11EvE9emptyNameB5cxx11 = internal global i64 0, align 8
@.str.16 = private unnamed_addr constant [24 x i8] c"File name not specified\00", align 1

; Function Attrs: mustprogress nounwind uwtable
define available_externally noundef i64 @_ZNKSt7__cxx1112basic_stringIcSt11char_traitsIcESaIcEE4sizeEv(ptr noundef nonnull align 8 dereferenceable(32) %0) #4 align 2 {
  %2 = alloca ptr, align 8
  store ptr %0, ptr %2, align 8, !tbaa !13
  %3 = load ptr, ptr %2, align 8
  %4 = getelementptr inbounds nuw %"class.std::__cxx11::basic_string", ptr %3, i32 0, i32 1
  %5 = load i64, ptr %4, align 8, !tbaa !70
  ret i64 %5
}

; Function Attrs: mustprogress nounwind uwtable
define linkonce_odr hidden void @_ZNSt15__new_allocatorIcEC2Ev(ptr noundef nonnull align 1 dereferenceable(1) %0) unnamed_addr #4 comdat align 2 {
  %2 = alloca ptr, align 8
  store ptr %0, ptr %2, align 8, !tbaa !211
  ret void
}

; Function Attrs: mustprogress nounwind uwtable
define available_externally noundef zeroext i1 @_ZNKSt7__cxx1112basic_stringIcSt11char_traitsIcESaIcEE5emptyEv(ptr noundef nonnull align 8 dereferenceable(32) %0) #4 align 2 {
  %2 = alloca ptr, align 8
  store ptr %0, ptr %2, align 8, !tbaa !13
  %3 = load ptr, ptr %2, align 8
  %4 = call noundef i64 @_ZNKSt7__cxx1112basic_stringIcSt11char_traitsIcESaIcEE4sizeEv(ptr noundef nonnull align 8 dereferenceable(32) %3) #3
  %5 = icmp eq i64 %4, 0
  ret i1 %5
}

; Function Attrs: mustprogress nounwind uwtable
define linkonce_odr hidden void @_ZNSt15__new_allocatorIcED2Ev(ptr noundef nonnull align 1 dereferenceable(1) %0) unnamed_addr #4 comdat align 2 {
  %2 = alloca ptr, align 8
  store ptr %0, ptr %2, align 8, !tbaa !211
  ret void
}

; Function Attrs: mustprogress nounwind uwtable
define available_externally void @_ZNSaIcEC2Ev(ptr noundef nonnull align 1 dereferenceable(1) %0) unnamed_addr #4 align 2 {
  %2 = alloca ptr, align 8
  store ptr %0, ptr %2, align 8, !tbaa !51
  %3 = load ptr, ptr %2, align 8
  call void @_ZNSt15__new_allocatorIcEC2Ev(ptr noundef nonnull align 1 dereferenceable(1) %3) #3
  ret void
}

; Function Attrs: mustprogress uwtable
define hidden noundef nonnull align 8 dereferenceable(32) ptr @_ZNK19OpenColorIO_v2_5dev9CDLParser4Impl14getXmlFilenameB5cxx11Ev(ptr noundef nonnull align 8 dereferenceable(98) %0) #5 align 2 personality ptr @__gxx_personality_v0 {
  %2 = alloca ptr, align 8
  %3 = alloca %"class.std::allocator.0", align 1
  %4 = alloca ptr, align 8
  %5 = alloca i32, align 4
  store ptr %0, ptr %2, align 8, !tbaa !11
  %6 = load ptr, ptr %2, align 8
  %7 = load atomic i8, ptr @_ZGVZNK19OpenColorIO_v2_5dev9CDLParser4Impl14getXmlFilenameB5cxx11EvE9emptyNameB5cxx11 acquire, align 8
  %8 = icmp eq i8 %7, 0
  br i1 %8, label %9, label %15, !prof !60

9:                                                ; preds = %1
  %10 = call i32 @__cxa_guard_acquire(ptr @_ZGVZNK19OpenColorIO_v2_5dev9CDLParser4Impl14getXmlFilenameB5cxx11EvE9emptyNameB5cxx11) #3
  %11 = icmp ne i32 %10, 0
  br i1 %11, label %12, label %15

12:                                               ; preds = %9
  call void @llvm.lifetime.start.p0(i64 1, ptr %3) #3
  call void @_ZNSaIcEC2Ev(ptr noundef nonnull align 1 dereferenceable(1) %3) #3
  invoke void @_ZNSt7__cxx1112basic_stringIcSt11char_traitsIcESaIcEEC2EPKcRKS3_(ptr noundef nonnull align 8 dereferenceable(32) @_ZZNK19OpenColorIO_v2_5dev9CDLParser4Impl14getXmlFilenameB5cxx11EvE9emptyNameB5cxx11, ptr noundef @.str.16, ptr noundef nonnull align 1 dereferenceable(1) %3)
          to label %13 unwind label %23

13:                                               ; preds = %12
  call void @_ZNSt15__new_allocatorIcED2Ev(ptr noundef nonnull align 1 dereferenceable(1) %3) #3
  call void @llvm.lifetime.end.p0(i64 1, ptr %3) #3
  %14 = call i32 @__cxa_atexit(ptr @_ZNSt7__cxx1112basic_stringIcSt11char_traitsIcESaIcEED2Ev, ptr @_ZZNK19OpenColorIO_v2_5dev9CDLParser4Impl14getXmlFilenameB5cxx11EvE9emptyNameB5cxx11, ptr @__dso_handle) #3
  call void @__cxa_guard_release(ptr @_ZGVZNK19OpenColorIO_v2_5dev9CDLParser4Impl14getXmlFilenameB5cxx11EvE9emptyNameB5cxx11) #3
  br label %15

15:                                               ; preds = %13, %9, %1
  %16 = getelementptr inbounds nuw %"class.OpenColorIO_v2_5dev::CDLParser::Impl", ptr %6, i32 0, i32 5
  %17 = call noundef zeroext i1 @_ZNKSt7__cxx1112basic_stringIcSt11char_traitsIcESaIcEE5emptyEv(ptr noundef nonnull align 8 dereferenceable(32) %16) #3
  br i1 %17, label %18, label %19

18:                                               ; preds = %15
  br label %21

19:                                               ; preds = %15
  %20 = getelementptr inbounds nuw %"class.OpenColorIO_v2_5dev::CDLParser::Impl", ptr %6, i32 0, i32 5
  br label %21

21:                                               ; preds = %19, %18
  %22 = phi ptr [ @_ZZNK19OpenColorIO_v2_5dev9CDLParser4Impl14getXmlFilenameB5cxx11EvE9emptyNameB5cxx11, %18 ], [ %20, %19 ]
  ret ptr %22

23:                                               ; preds = %12
  %24 = landingpad { ptr, i32 }
          cleanup
  %25 = extractvalue { ptr, i32 } %24, 0
  store ptr %25, ptr %4, align 8
  %26 = extractvalue { ptr, i32 } %24, 1
  store i32 %26, ptr %5, align 4
  call void @_ZNSt15__new_allocatorIcED2Ev(ptr noundef nonnull align 1 dereferenceable(1) %3) #3
  call void @llvm.lifetime.end.p0(i64 1, ptr %3) #3
  call void @__cxa_guard_abort(ptr @_ZGVZNK19OpenColorIO_v2_5dev9CDLParser4Impl14getXmlFilenameB5cxx11EvE9emptyNameB5cxx11) #3
  br label %27

27:                                               ; preds = %23
  %28 = load ptr, ptr %4, align 8
  %29 = load i32, ptr %5, align 4
  %30 = insertvalue { ptr, i32 } poison, ptr %28, 0
  %31 = insertvalue { ptr, i32 } %30, i32 %29, 1
  resume { ptr, i32 } %31
}