; Function Attrs: mustprogress uwtable
define hidden noundef nonnull align 8 dereferenceable(32) ptr @_ZNK19OpenColorIO_v2_5dev9CDLParser4Impl14getXmlFilenameB5cxx11Ev(ptr noundef nonnull readonly align 8 dereferenceable(98) %0) local_unnamed_addr #4 align 2 personality ptr @__gxx_personality_v0 {
  %2 = alloca %"class.std::allocator.0", align 1
  %3 = load atomic i8, ptr @_ZGVZNK19OpenColorIO_v2_5dev9CDLParser4Impl14getXmlFilenameB5cxx11EvE9emptyNameB5cxx11 acquire, align 8
  %4 = icmp eq i8 %3, 0
  br i1 %4, label %5, label %10, !prof !85

5:                                                ; preds = %1
  %6 = tail call i32 @__cxa_guard_acquire(ptr nonnull @_ZGVZNK19OpenColorIO_v2_5dev9CDLParser4Impl14getXmlFilenameB5cxx11EvE9emptyNameB5cxx11) #30
  %.not = icmp eq i32 %6, 0
  br i1 %.not, label %10, label %7

7:                                                ; preds = %5
  call void @llvm.lifetime.start.p0(i64 1, ptr nonnull %2) #30
  invoke void @_ZNSt7__cxx1112basic_stringIcSt11char_traitsIcESaIcEEC2EPKcRKS3_(ptr noundef nonnull align 8 dereferenceable(32) @_ZZNK19OpenColorIO_v2_5dev9CDLParser4Impl14getXmlFilenameB5cxx11EvE9emptyNameB5cxx11, ptr noundef nonnull @.str.16, ptr noundef nonnull align 1 dereferenceable(1) %2)
          to label %8 unwind label %16

8:                                                ; preds = %7
  call void @llvm.lifetime.end.p0(i64 1, ptr nonnull %2) #30
  %9 = call i32 @__cxa_atexit(ptr nonnull @_ZNSt7__cxx1112basic_stringIcSt11char_traitsIcESaIcEED2Ev, ptr nonnull @_ZZNK19OpenColorIO_v2_5dev9CDLParser4Impl14getXmlFilenameB5cxx11EvE9emptyNameB5cxx11, ptr nonnull @__dso_handle) #30
  call void @__cxa_guard_release(ptr nonnull @_ZGVZNK19OpenColorIO_v2_5dev9CDLParser4Impl14getXmlFilenameB5cxx11EvE9emptyNameB5cxx11) #30
  br label %10

10:                                               ; preds = %8, %5, %1
  %11 = getelementptr inbounds nuw i8, ptr %0, i64 64
  %12 = getelementptr inbounds nuw i8, ptr %0, i64 72
  %13 = load i64, ptr %12, align 8, !tbaa !31
  %14 = icmp eq i64 %13, 0
  %15 = select i1 %14, ptr @_ZZNK19OpenColorIO_v2_5dev9CDLParser4Impl14getXmlFilenameB5cxx11EvE9emptyNameB5cxx11, ptr %11
  ret ptr %15

16:                                               ; preds = %7
  %17 = landingpad { ptr, i32 }
          cleanup
  call void @llvm.lifetime.end.p0(i64 1, ptr nonnull %2) #30
  call void @__cxa_guard_abort(ptr nonnull @_ZGVZNK19OpenColorIO_v2_5dev9CDLParser4Impl14getXmlFilenameB5cxx11EvE9emptyNameB5cxx11) #30
  resume { ptr, i32 } %17
}